(lp0
F0.062201146
aF-0.923860431
aF-0.354358435
aF0.457787067
aF0.449089199
aF-0.864773571
aF-1.221677661
aF0.698094249
aF1.107599020
aF0.479948014
aF-0.026444441
aF0.046883810
aF0.125541687
aF1.020605803
aF0.416616231
aF-0.081909917
aF-0.284640759
aF0.014560386
aF-0.151062012
aF0.690597355
aF0.095229506
aF-0.285494655
aF0.234980509
aF-0.074626967
aF-0.748730540
aF0.466693878
aF1.018339634
aF0.085225068
aF-0.244129121
aF0.552046478
aF0.516273439
aF-0.958846092
aF-0.913755119
aF-1.092662573
aF1.357082009
aF-1.269428015
aF0.274206936
aF-0.190564990
aF1.111494780
aF-0.231326163
aF0.290862054
aF-0.267339349
aF0.052581742
aF-1.258047700
aF0.776573181
aF-0.413032293
aF-0.585645974
aF1.100706697
aF-0.533868492
aF0.083627850
aF0.901620209
aF-0.755868316
aF-1.012476921
aF0.254315317
aF0.178005546
aF-0.010779685
aF0.906637251
aF-0.754294336
aF-0.064602211
aF0.030741336
aF-0.236015186
aF-0.633843601
aF0.010886864
aF0.611860693
aF-0.082372285
aF0.281511009
aF0.916474938
aF-0.206049323
aF0.475809485
aF0.340941787
aF0.071476191
aF-1.341727853
aF-0.888678670
aF-0.399138004
aF0.614015281
aF-0.076884568
aF-0.658542871
aF0.010148155
aF-0.051985774
aF-0.750542998
aF0.109493658
aF-0.017972795
aF0.184635222
aF0.093185522
aF0.444030672
aF-0.858825743
aF-0.400005370
aF0.499023587
aF0.684288800
aF1.559944034
aF-0.317897260
aF0.235942259
aF0.013737252
aF0.386756748
aF-0.094847456
aF-2.345875740
aF1.054687858
aF1.182204366
aF-0.778423727
aF-0.929844379
aF1.321179032
aF0.968440413
aF0.469376594
aF-0.773470521
aF-0.451172918
aF-0.705866516
aF-0.279830068
aF-0.602738917
aF-0.248687148
aF-1.200630546
aF0.417812824
aF-0.305519640
aF-0.842604041
aF-1.200230718
aF0.225045785
aF-0.251953363
aF-0.911725938
aF-0.906868398
aF1.151305199
aF2.113641024
aF0.007708460
aF-1.030114412
aF0.091078624
aF-0.037098445
aF-0.415910333
aF-1.064332724
aF-1.137538075
aF0.080578908
aF-1.657126188
aF1.167984366
aF0.233491302
aF0.263506174
aF0.658422291
aF1.383097410
aF0.249989390
aF-0.957436085
aF0.322113067
aF0.341200113
aF-0.293451935
aF0.473182410
aF1.335091710
aF-0.076928288
aF0.037885025
aF1.111746669
aF-0.400388122
aF-0.662542164
aF0.709203005
aF-0.623411834
aF-0.146152139
aF-0.489403009
aF1.467296004
aF-0.391731292
aF-0.510056615
aF-1.311109543
aF-1.863149166
aF1.232472062
aF-1.006961823
aF-0.968628943
aF0.369303763
aF-0.000222958
aF-0.114548333
aF0.368078649
aF-0.337427288
aF0.074516326
aF-0.061615773
aF1.018403053
aF0.257470071
aF-0.138174489
aF-0.752942622
aF0.903404176
aF0.721448779
aF0.736389399
aF-0.713116765
aF1.173320413
aF0.598384857
aF-1.047959328
aF0.990924001
aF0.244110808
aF-0.138268098
aF-0.313668489
aF0.614990473
aF-0.028432693
aF0.789764941
aF-0.780129790
aF-0.567870021
aF0.269629002
aF-0.166716754
aF-1.158253551
aF-0.749215126
aF1.853710532
aF1.194072247
aF1.530396581
aF-0.263010234
aF0.920755446
aF-0.020073218
aF0.711236119
aF-1.441775680
aF0.709856153
aF0.537717879
aF-0.366616458
aF2.038298130
aF-0.662343502
aF-0.737721920
aF-0.301738739
aF-1.894108176
aF-1.528921962
aF-0.889384210
aF-0.575421989
aF0.021984482
aF0.216944098
aF-0.992649376
aF0.467476547
aF-1.594622254
aF-0.248536870
aF0.829251945
aF-0.365520686
aF0.133090854
aF-0.041061062
aF-0.673728526
aF0.265792727
aF0.121560581
aF-0.257035404
aF0.607851267
aF0.305063069
aF0.246500269
aF-0.699794292
aF0.566173851
aF-0.018907024
aF0.105086103
aF-0.282088369
aF-0.412521720
aF-0.806816101
aF-0.215934604
aF0.704689264
aF-0.079363495
aF0.913727224
aF0.773367345
aF-0.378362060
aF0.706748664
aF-0.030364251
aF-1.124862790
aF0.935699165
aF0.984048963
aF-0.605952919
aF-0.907700658
aF0.412346393
aF-0.326364040
aF1.071885705
aF-0.124891788
aF0.614230514
aF0.434445173
aF-0.196487665
aF-0.156644702
aF0.497326046
aF0.079112709
aF-0.559984565
aF-0.400159180
aF-0.077975199
aF-0.623206496
aF0.205951586
aF-1.125073075
aF0.639156699
aF0.870514631
aF-0.121118762
aF0.403286368
aF-0.570228815
aF-0.732684493
aF0.430483609
aF0.173002094
aF-0.322079509
aF-0.311675817
aF-0.533636868
aF-0.348899543
aF-0.340838999
aF-0.508756399
aF-0.455653906
aF-0.376162201
aF-1.338699698
aF1.536357641
aF0.040801696
aF0.309877366
aF-1.007076621
aF-0.968239129
aF0.905548811
aF-0.399710506
aF-0.580906689
aF-0.098108806
aF0.357664466
aF0.126643971
aF0.695512116
aF-0.699566901
aF0.782400012
aF-0.117660433
aF-0.628126562
aF0.059471864
aF0.515974045
aF1.103444576
aF-0.638054967
aF1.305684328
aF-0.029084045
aF0.067736961
aF1.610787988
aF0.454419851
aF0.376818568
aF-0.540283501
aF0.729850590
aF0.187370569
aF1.245981455
aF0.174620196
aF-0.857969642
aF-1.072970867
aF0.319494337
aF-1.195513487
aF-0.052562792
aF0.131141275
aF-1.255180717
aF0.472443223
aF-1.206510663
aF-0.079969198
aF-0.566569209
aF0.448829502
aF0.207984164
aF-0.572368622
aF1.530854344
aF-0.543754876
aF-0.490078270
aF1.187412620
aF0.260540932
aF-0.359064311
aF1.687448978
aF-0.105704814
aF-1.295646787
aF0.125737816
aF1.014760256
aF-0.847314954
aF-0.129840732
aF-0.888378561
aF0.855049968
aF0.573912680
aF-0.922520399
aF-0.128367275
aF0.542209327
aF0.880167603
aF0.704917490
aF-1.073326230
aF0.959735632
aF0.344529301
aF-0.144463286
aF-0.383599520
aF1.031513929
aF0.571976542
aF-0.974728465
aF0.456216276
aF0.478487104
aF-0.052199814
aF-0.054711789
aF-0.674619615
aF-0.035163440
aF-0.259896994
aF0.493623853
aF-0.464788407
aF0.164930150
aF-0.515849173
aF0.167483285
aF0.748711228
aF0.103867076
aF-0.114802934
aF-0.586244524
aF-0.038659409
aF0.756464839
aF-0.673912764
aF-1.139367700
aF-1.375140786
aF-0.446355581
aF0.705433965
aF-0.000672419
aF0.228026778
aF-0.502223015
aF0.650756776
aF-0.388449699
aF0.124386303
aF-1.625043392
aF0.400462329
aF-0.434092194
aF0.175818011
aF-0.954864562
aF0.094123721
aF0.708654523
aF-0.824049056
aF-0.216971904
aF0.277847528
aF0.517068267
aF0.638693452
aF-0.535451174
aF1.365691781
aF0.541056275
aF-0.267462283
aF1.200919271
aF0.692025483
aF-0.982812464
aF-0.188795894
aF-0.630748212
aF0.200989157
aF0.088723779
aF0.051855721
aF-0.147850797
aF0.469829828
aF0.098399758
aF0.892172515
aF0.715377390
aF-0.375725061
aF0.156630844
aF1.020248175
aF1.233678102
aF-0.759471714
aF-1.421747208
aF-0.241276890
aF0.643987656
aF-1.240824699
aF1.270339012
aF-0.630160511
aF0.280289799
aF0.155262098
aF1.160369992
aF-0.550823569
aF0.242199510
aF-0.174744427
aF1.160927653
aF0.927759290
aF0.515865922
aF0.837874889
aF1.275017023
aF-0.659160137
aF0.923976660
aF-1.751731038
aF-0.377304852
aF0.227470189
aF-0.549006224
aF0.197679967
aF0.993900716
aF-0.295127422
aF0.862539589
aF-1.167844653
aF-1.292192817
aF1.082366109
aF-1.545309901
aF0.108725049
aF0.850162685
aF-0.130870998
aF-0.183243170
aF-1.593976259
aF0.471552312
aF0.648456275
aF-0.343383491
aF0.122119874
aF1.280416012
aF-0.240075320
aF0.139462799
aF0.039255373
aF-0.827595294
aF1.458883762
aF-0.361850083
aF0.740273356
aF0.768952966
aF0.331121981
aF0.255870163
aF0.588009655
aF1.187064290
aF-0.361441582
aF0.262848556
aF-0.310482740
aF0.699889064
aF0.040403180
aF0.312949300
aF0.013714273
aF0.523096502
aF1.446587086
aF-1.572193265
aF-0.341523468
aF0.529547334
aF0.998835504
aF0.083712988
aF-1.102163553
aF0.734015346
aF0.576971829
aF-1.173105717
aF1.137848377
aF0.315895677
aF0.803462744
aF-0.627663732
aF-0.028585052
aF-0.906977296
aF0.225276202
aF0.010670919
aF0.052724756
aF0.265037447
aF-0.944858491
aF0.747133970
aF-0.140490100
aF-0.855978310
aF-1.085101962
aF-0.030764954
aF-0.553422093
aF0.599301457
aF0.775827467
aF0.569272816
aF0.142485827
aF-1.304650187
aF0.612767518
aF0.037459146
aF1.020969391
aF-0.103598118
a.
