(lp0
F-1.297719955
aF-0.675405562
aF0.154177368
aF-1.327325463
aF-1.111903548
aF0.871531248
aF0.367704481
aF1.130548835
aF1.570436597
aF-1.392689705
aF-1.230211258
aF0.829275310
aF-0.031265467
aF0.813086689
aF-1.725974441
aF-0.548719943
aF0.045215935
aF-0.433521509
aF0.584890842
aF2.302090168
aF0.254010916
aF0.431222022
aF0.666836202
aF0.106024064
aF-0.880875587
aF0.612024128
aF-0.027769668
aF-0.403210193
aF0.559004426
aF-0.864421785
aF2.226688385
aF0.016179502
aF-0.246776178
aF-0.358981311
aF0.010220693
aF0.667054534
aF0.311927378
aF-0.111801781
aF-0.419195056
aF-0.245765507
aF0.157222688
aF-0.718110919
aF0.232494056
aF-0.327978492
aF0.038489204
aF0.140422463
aF-0.363248914
aF0.404716760
aF0.230937064
aF-0.684903204
aF1.539024949
aF0.550268531
aF0.291672856
aF0.217767969
aF-1.044020653
aF0.643426299
aF0.980211079
aF-1.330098391
aF-1.574606895
aF-0.161155328
aF-0.615922511
aF0.097039834
aF-0.458339810
aF0.086231284
aF0.039658908
aF-0.330815911
aF-0.632195592
aF-1.381360292
aF-0.676889479
aF-0.054949857
aF-0.588385820
aF-0.779822767
aF-0.163745731
aF1.269560814
aF0.025824595
aF-0.176989943
aF0.349997580
aF0.047606498
aF-1.834056139
aF0.702619135
aF-0.171696648
aF-0.928335905
aF0.790289521
aF-1.244091749
aF0.388753027
aF-0.095503308
aF-0.442108363
aF-0.980700374
aF1.904965401
aF1.128789902
aF-1.921246171
aF0.329082221
aF-0.092777945
aF-0.826922536
aF0.643398523
aF0.112043887
aF0.156113595
aF-0.098204255
aF-0.170212790
aF0.863338530
aF0.821119726
aF-0.523757339
aF0.477513671
aF-0.202215523
aF-0.565990150
aF0.050969373
aF1.547881246
aF1.206047177
aF-0.102740414
aF0.184592739
aF-0.556031704
aF-0.110944532
aF-0.400773525
aF0.295925170
aF-0.910536528
aF-0.730760098
aF0.662849009
aF0.042723704
aF2.169541836
aF2.008153200
aF0.470711499
aF-0.471445322
aF1.426348329
aF-0.820467353
aF-0.777238429
aF0.395389795
aF-1.127389193
aF-1.258156180
aF-0.821882725
aF0.225735039
aF0.131018326
aF0.949226379
aF0.148996502
aF2.298516512
aF0.157314777
aF-0.293655097
aF0.352994025
aF-1.250154614
aF0.236376062
aF0.562905550
aF-0.035346188
aF-1.034650683
aF-0.627847612
aF1.913422108
aF0.016910383
aF1.358211160
aF-0.218788832
aF-0.401815832
aF0.531711578
aF0.154538915
aF1.088489652
aF-0.553149343
aF0.324741721
aF-0.900537848
aF0.881831348
aF1.184735298
aF-0.646234512
aF1.694996595
aF1.612403870
aF1.012785673
aF-0.152421713
aF-1.369140983
aF-1.377688766
aF-0.004179164
aF0.610909343
aF0.176183715
aF-0.522439361
aF-0.215034381
aF0.155695081
aF1.515305400
aF0.007929269
aF-1.370808363
aF0.756005943
aF0.694289863
aF0.677966356
aF-1.273461342
aF1.682462931
aF0.547231734
aF-1.659370780
aF0.197427854
aF-0.390496224
aF-0.489931405
aF0.784336627
aF0.942079067
aF-1.704772353
aF0.812995970
aF-0.805689573
aF-1.734347939
aF-0.374206185
aF0.993046880
aF1.491775870
aF0.457873821
aF-0.052601501
aF0.094406359
aF-1.787270546
aF1.195166349
aF0.997725606
aF-0.427262753
aF-0.242825449
aF0.615167320
aF-0.409222752
aF0.149504632
aF-1.321452498
aF-0.226768166
aF-0.613798201
aF-1.249319315
aF-0.117436819
aF0.250487685
aF-0.821381390
aF1.141512275
aF-1.758406520
aF0.081331089
aF-1.016560555
aF-1.139522672
aF0.020915741
aF-0.439013392
aF-0.595812023
aF-0.206622392
aF1.165500760
aF-1.961346269
aF-0.420706809
aF0.256383270
aF-0.012745236
aF0.310252100
aF-0.169948772
aF-1.191815615
aF-0.355936944
aF0.088754423
aF-0.564949751
aF-0.233457446
aF-0.642303288
aF-1.459977865
aF0.089869760
aF-0.339818865
aF-0.257998377
aF1.126127124
aF0.504569292
aF-1.214831352
aF1.678772092
aF0.596195042
aF-0.741558015
aF0.333660513
aF0.494702935
aF-0.364232123
aF1.458062887
aF-0.284772396
aF1.182481408
aF0.850030541
aF-0.121343791
aF-0.360004634
aF0.387886405
aF0.561305940
aF0.058383979
aF0.119265027
aF-0.014642215
aF-1.203320622
aF0.711765110
aF2.286611795
aF-1.011485457
aF0.121784411
aF0.745679975
aF-0.283783436
aF0.500045061
aF-0.031933345
aF0.502615273
aF0.189986929
aF0.050249510
aF1.987492204
aF0.408778667
aF0.560530126
aF0.528571248
aF0.153081372
aF-0.748141825
aF0.645354390
aF0.750466883
aF-1.055569053
aF0.566300213
aF-0.738859057
aF-0.884544909
aF-0.006029075
aF-0.498394251
aF0.463599354
aF0.641331434
aF0.971065283
aF-1.800132871
aF1.141868472
aF-1.142431259
aF0.090976305
aF-1.019986868
aF0.783481658
aF0.182429701
aF-0.006097103
aF1.004713058
aF-0.735557795
aF0.586242855
aF0.287599117
aF-0.384722143
aF0.033824906
aF0.600687325
aF1.115542173
aF-0.918877482
aF1.108063459
aF-0.046483736
aF0.914148211
aF1.013874650
aF0.901726604
aF-0.025438953
aF0.296591550
aF-0.995411932
aF-0.312402606
aF-1.079329848
aF-0.449457049
aF-0.829764247
aF0.144690961
aF0.075962499
aF-0.935027361
aF0.318874151
aF0.121624820
aF0.289906532
aF-1.162908792
aF1.443009257
aF-0.193621010
aF1.001632094
aF0.160848379
aF-0.011000887
aF1.019757986
aF0.996874750
aF0.465782791
aF0.181083828
aF0.839006841
aF0.236492664
aF-1.483083725
aF0.817504466
aF-0.334657550
aF0.761497915
aF-0.621337295
aF-0.220940962
aF-0.472357273
aF-1.089264870
aF-0.389830679
aF0.268983543
aF0.411612540
aF1.331883669
aF-0.277403086
aF0.078745849
aF1.520606160
aF0.873014510
aF0.069717512
aF1.133036137
aF0.831607401
aF0.571460426
aF1.051306844
aF0.274552137
aF-0.231062710
aF-0.458754241
aF1.043942451
aF-0.670725286
aF0.134761408
aF-0.207793221
aF0.591112971
aF-0.572246492
aF0.225641742
aF-0.379134595
aF-0.795682609
aF0.063659705
aF0.414613247
aF0.225560144
aF-0.136240527
aF1.318035960
aF0.295405418
aF-0.203353778
aF-0.216578662
aF0.641705275
aF-1.858494997
aF0.432084829
aF0.380371511
aF-1.078829288
aF0.513670146
aF-1.091414094
aF0.900812626
aF0.269246578
aF-1.389003634
aF0.163299426
aF1.226679444
aF-1.417383671
aF-0.019308593
aF-0.113049164
aF-1.517025232
aF0.477922678
aF0.425285637
aF-0.284999192
aF1.466069937
aF-1.393875122
aF-0.256716281
aF-0.842212617
aF-0.818944633
aF-0.049425904
aF-0.834350824
aF0.241230726
aF-0.947756708
aF1.803173900
aF-0.897043347
aF-0.305036396
aF-0.999324501
aF-0.636551201
aF-0.379505038
aF0.164264783
aF0.247336641
aF0.587287903
aF0.122343026
aF0.645239294
aF0.818553507
aF0.388271213
aF0.447044134
aF0.320282131
aF-0.250173151
aF-0.349768162
aF0.068941556
aF-0.748348653
aF-0.300680995
aF-1.009462476
aF1.546217322
aF0.942293465
aF0.830447316
aF0.500063002
aF0.491913319
aF0.391500622
aF0.567166865
aF-0.018381357
aF0.096554346
aF0.568543911
aF-0.384152949
aF0.299374253
aF0.233750731
aF-0.823254704
aF-0.356986344
aF1.056494832
aF-0.473082751
aF0.815724969
aF-0.190942660
aF-0.954356194
aF0.973531842
aF-0.639857948
aF-0.534260571
aF1.337741971
aF-1.308851719
aF0.745597124
aF1.124667406
aF-0.409192890
aF-0.408017993
aF-1.399354219
aF0.611694455
aF2.492023230
aF-0.263914347
aF-0.520013392
aF1.547880888
aF0.835105896
aF0.234931573
aF1.010015845
aF-0.676385283
aF0.193319574
aF0.507864714
aF1.250128627
aF-0.198485315
aF0.960007727
aF-1.902745724
aF0.328112423
aF0.236446872
aF-0.638651729
aF0.118339770
aF-0.934212446
aF-0.633651853
aF0.896628499
aF-0.552264333
aF-1.104578733
aF-1.115680456
aF0.466077089
aF-0.533778965
aF0.138801813
aF-0.106580786
aF-0.314759552
aF1.310050964
aF-0.852779090
aF-0.898337901
aF-0.989997566
aF-1.162817001
aF0.639753401
aF0.074061118
aF0.790862739
aF-1.695199490
aF0.885039449
aF-0.000549798
aF-0.592316628
aF1.495092273
aF0.916187286
aF1.199941397
aF0.341608465
aF0.438601285
aF-0.270848423
aF-1.958780289
aF0.717579365
aF0.109703831
aF-0.918438017
aF0.347136289
aF0.026790010
aF-0.404493123
aF-0.533464015
aF-0.470955104
aF-0.911003947
aF0.092905819
aF-0.163463801
aF-0.033164974
a.
