(lp0
F-0.045571040
aF-0.700958014
aF0.900873661
aF-0.464044660
aF0.815281451
aF0.700945914
aF0.199567810
aF-1.043397188
aF-0.681044519
aF0.814322412
aF0.082509764
aF0.621915936
aF-1.052318811
aF1.720193505
aF0.784337997
aF1.264938235
aF-0.494217485
aF0.457898736
aF0.212004557
aF-0.208905995
aF0.777538598
aF-1.177220225
aF-0.919893563
aF0.037862595
aF0.642590821
aF-0.769289732
aF-0.146879733
aF0.925819576
aF-0.780773938
aF-0.464207411
aF1.202013254
aF-1.003559709
aF-0.687728167
aF0.485225111
aF-1.136210680
aF-0.078574710
aF-0.250376016
aF-1.430493951
aF-0.062428296
aF-0.713443935
aF-0.625234008
aF-1.008929372
aF-0.843629122
aF0.796259403
aF0.955500066
aF-0.320842713
aF-0.742767394
aF0.210140094
aF0.172187790
aF-0.357432336
aF-0.625144422
aF0.132487953
aF-0.282716036
aF0.324644089
aF-0.511623919
aF0.386725277
aF-0.708617866
aF0.630648196
aF0.468540639
aF-0.271327525
aF0.204532191
aF0.472619891
aF-0.634034336
aF0.769524992
aF-0.647045910
aF-0.675205469
aF-0.027522856
aF-0.395770192
aF-0.366122127
aF-0.016625255
aF-0.372382134
aF0.772504330
aF-0.150844410
aF-0.356013209
aF0.260077208
aF-0.304104805
aF-0.377243191
aF1.562843442
aF-0.483138591
aF-0.358266830
aF0.596737802
aF0.199069425
aF0.680656493
aF-1.793568492
aF0.374954551
aF0.157172114
aF-0.355609775
aF-0.081044398
aF-1.083663106
aF1.733302474
aF-0.554053128
aF0.144473806
aF-0.389930755
aF-0.410943955
aF-0.474327117
aF-0.000023283
aF0.184908316
aF-0.847555339
aF-0.732734263
aF-0.553179622
aF-0.445738286
aF-0.091421925
aF0.357629567
aF0.973744333
aF0.134179711
aF0.583393395
aF0.511557043
aF0.729930103
aF-0.833927631
aF-0.133327648
aF-0.117916100
aF-0.255199015
aF-0.293152392
aF0.381352454
aF0.107833505
aF0.716156542
aF-0.289135367
aF-0.957100928
aF0.589957297
aF-0.634104431
aF0.083247304
aF-0.294120133
aF-0.725526154
aF1.075935364
aF-0.338982731
aF0.444777876
aF0.967453063
aF-0.217356667
aF0.652800441
aF-0.219284490
aF0.296252519
aF-0.608478725
aF-0.519257605
aF-0.317742795
aF-0.775418699
aF-0.342232227
aF0.756709278
aF-0.647789896
aF0.330587298
aF-0.155391440
aF0.471178800
aF0.287042022
aF-0.595764935
aF-1.149745107
aF-0.714976788
aF-0.726580679
aF-0.713670433
aF0.495850563
aF0.175806284
aF0.932084084
aF0.068691827
aF0.473243564
aF-0.293802887
aF-1.006733537
aF0.070514701
aF0.494069338
aF0.076485991
aF0.431473166
aF0.161055326
aF0.056061830
aF-0.302000552
aF0.157630205
aF-0.833353996
aF-0.301582336
aF1.052882075
aF0.394704551
aF-0.444903493
aF0.657815993
aF0.047995146
aF0.008684800
aF0.526526928
aF-0.003990158
aF-0.406473607
aF0.424969524
aF0.873643577
aF0.071765266
aF0.414153665
aF0.731365025
aF0.811300516
aF0.106770553
aF-0.768701792
aF0.100899078
aF-0.098815203
aF0.268880397
aF-0.623150468
aF0.619813383
aF-0.060906261
aF0.855534256
aF0.304046541
aF0.334178448
aF0.520914733
aF0.416961819
aF-0.381878883
aF0.417228252
aF0.760118008
aF0.817275763
aF-0.367544293
aF0.665463030
aF0.260560125
aF0.109114885
aF0.258038819
aF-0.078071356
aF-0.850667536
aF0.469554901
aF-0.385185838
aF-0.643371046
aF0.328127205
aF0.060577136
aF0.048045408
aF-1.038613319
aF0.082324184
aF-0.342920423
aF0.245345011
aF-0.496737957
aF0.239561871
aF0.337300301
aF-0.488444805
aF-0.436659008
aF0.312290281
aF-0.611228049
aF0.956958234
aF0.508769810
aF1.258233070
aF-0.710757256
aF0.422531933
aF-0.239460841
aF0.666397393
aF-0.528644323
aF-0.661509335
aF0.379177898
aF-0.217890859
aF-0.385964662
aF-0.661959350
aF-0.366241574
aF0.135372385
aF0.757249117
aF-1.421650529
aF-0.675872087
aF0.457458407
aF0.845623493
aF0.117559738
aF0.392553419
aF1.604039550
aF-0.365256637
aF-0.561112225
aF-0.230701745
aF-0.284565419
aF-0.722096682
aF-0.347936869
aF0.394474655
aF-0.906013966
aF0.344830424
aF-0.349463969
aF0.638931334
aF-0.650214732
aF-0.669682443
aF0.029733913
aF0.014252531
aF0.079674862
aF0.234041274
aF-0.036505610
aF-0.379274398
aF0.659243107
aF-0.018289531
aF0.047347173
aF-0.183101758
aF0.362105757
aF1.092587113
aF0.450467080
aF0.266399652
aF0.485381514
aF0.443341941
aF0.559490263
aF-0.141279086
aF0.803567171
aF1.590920925
aF-0.629549205
aF-0.517632067
aF0.408875585
aF0.450239152
aF-0.302055895
aF-0.821439505
aF0.800089419
aF0.291288942
aF0.754983604
aF-0.550257921
aF1.044840217
aF-0.127336577
aF0.010394483
aF-0.038696654
aF0.903229773
aF0.505518854
aF-0.018970201
aF0.811768293
aF0.409904987
aF0.001001736
aF0.708526313
aF-1.156836748
aF0.212966248
aF1.285937309
aF-0.506502509
aF-0.548015475
aF0.168064341
aF-0.272533685
aF-0.316408902
aF-0.022495611
aF0.446150690
aF-0.779944003
aF0.216057003
aF0.523257434
aF-1.266182780
aF-0.262149751
aF-0.569476783
aF1.591694951
aF0.888231277
aF-0.675545752
aF0.715066195
aF-0.765196383
aF1.204915881
aF-0.711119115
aF-0.157308549
aF-0.055658799
aF1.227132916
aF0.646184027
aF0.358124018
aF-0.100772321
aF0.492087871
aF-0.266756743
aF-0.126884386
aF0.076260261
aF-0.438644975
aF-0.368552834
aF1.211652398
aF1.117335558
aF-0.624005437
aF-0.222939909
aF-0.038378149
aF-1.178884149
aF-0.898816288
aF-1.062480927
aF0.524571240
aF0.867218435
aF0.367130011
aF0.391961217
aF-1.447302341
aF-1.023087382
aF-0.235981271
aF-0.749001920
aF0.655361950
aF0.115955859
aF0.395603031
aF-0.846743524
aF-0.522778332
aF0.029435895
aF-0.294274867
aF0.009062544
aF1.020984769
aF0.524290621
aF-0.346418887
aF0.385726899
aF-0.615529418
aF-0.470623046
aF0.317628205
aF-0.756868422
aF-0.574083745
aF-0.282565266
aF0.015010205
aF-0.476086646
aF0.693876803
aF0.029241353
aF-0.065411031
aF0.461990088
aF-0.175486147
aF-1.014303565
aF-0.582328677
aF-0.292549700
aF-0.394785047
aF0.001974018
aF-0.663341343
aF0.766971409
aF1.305964589
aF0.200041309
aF-0.854831219
aF0.072137736
aF0.396074295
aF-1.050639987
aF-0.163159356
aF-0.425860167
aF-0.639192045
aF-0.962849855
aF0.233525798
aF0.869561136
aF0.169347361
aF1.287841201
aF-0.010842249
aF-0.921420097
aF-0.389982611
aF0.167886063
aF0.932202041
aF-0.320520252
aF-0.588268936
aF0.325660914
aF-0.703741312
aF0.348823190
aF-0.305759400
aF-0.154127702
aF-0.045159876
aF0.291909784
aF-0.104244560
aF-0.433648258
aF-0.887621939
aF-0.282424361
aF-0.208287537
aF-1.725277066
aF-0.164191931
aF0.689234436
aF0.929111540
aF-1.063925505
aF-0.237963840
aF0.280373067
aF-0.028407937
aF0.044460312
aF1.101514935
aF0.807220638
aF0.563430369
aF-0.366327167
aF-0.219318613
aF0.258351743
aF0.038431987
aF-0.920279324
aF0.739589989
aF0.267380983
aF-0.412947446
aF-0.389185816
aF0.315192670
aF0.427097470
aF-1.013637900
aF0.269399017
aF0.645528674
aF-0.049462173
aF-0.463234931
aF-0.172721446
aF-0.638998508
aF-1.262582421
aF-0.167370066
aF-0.117715232
aF-0.608307421
aF2.016831875
aF0.049875718
aF-0.065343030
aF0.587151885
aF-0.738394499
aF0.288639277
aF-1.990910649
aF-0.887108147
aF-0.497791618
aF0.409134746
aF0.424333543
aF0.153378114
aF-1.090831161
aF-1.220713973
aF0.863513768
aF1.033313513
aF-0.179793909
aF1.354201317
aF0.040600564
aF-0.011728282
aF-0.559611738
aF-1.134091735
aF0.871814907
aF0.201664984
aF0.228505254
aF0.338309795
aF-0.435077906
aF0.419175833
aF-0.274192840
aF0.166566700
aF-0.439972997
aF0.309402436
aF-0.018803371
aF0.391608447
aF-0.110883303
aF0.860738933
aF0.368732065
aF-0.973784268
aF-0.906900883
aF-0.410935193
aF1.018391728
aF-0.705795765
aF-0.011902883
aF-0.291388005
aF0.627049208
aF-0.625949383
aF-0.761613369
aF0.715385616
aF0.127889380
aF-0.354749650
aF-1.353937149
aF0.235622346
aF-0.162653878
aF0.326675743
aF-0.262613922
aF-0.514429271
aF0.724923551
aF-0.220256373
aF-1.545396924
aF0.143108517
aF-0.244314253
aF-0.474529266
aF1.139685750
aF0.993025064
aF0.631124556
a.
