(lp0
F-0.909842670
aF0.195675015
aF0.724943995
aF0.727960944
aF-0.780093253
aF0.296765327
aF0.867686152
aF-0.452538908
aF0.397110105
aF1.128084064
aF-1.060389757
aF0.167543411
aF0.481108993
aF-0.144852772
aF0.550773561
aF-0.165632978
aF0.840039790
aF-1.260361552
aF-0.268320173
aF0.765145481
aF0.231968865
aF-0.281424463
aF-1.044917703
aF1.016771436
aF0.687428236
aF0.456469864
aF-0.686124027
aF1.005537391
aF0.029541804
aF1.055408835
aF-0.443305463
aF-0.298256099
aF0.170811892
aF-1.463973999
aF0.620913088
aF-0.484290779
aF0.417773783
aF-1.380474448
aF-0.525313437
aF0.605097532
aF1.216627479
aF0.056803558
aF1.228513360
aF0.168559775
aF0.122186393
aF-1.177456856
aF-0.450600117
aF-0.325692207
aF0.489937007
aF-0.090774506
aF0.295193851
aF-0.972237408
aF0.467366636
aF0.128540903
aF0.464954257
aF-0.508251071
aF0.382669151
aF0.273195386
aF-0.078452684
aF-0.305128604
aF-0.005320756
aF1.112048030
aF0.136990428
aF0.426326662
aF-0.600209057
aF0.134054273
aF0.411727130
aF-0.620334566
aF-0.221798882
aF0.340523779
aF-0.850916386
aF2.026886702
aF-0.557978392
aF-0.439069003
aF0.865646839
aF-0.246209681
aF-0.874151230
aF0.351581067
aF0.475496948
aF0.677394867
aF-0.974478006
aF-1.195774555
aF0.253117651
aF-0.250141978
aF0.234219864
aF-0.611608624
aF-0.463765055
aF-0.089632720
aF-1.002818108
aF0.315326482
aF-0.512899339
aF-0.367156416
aF1.434979677
aF-1.683650494
aF-0.115378641
aF-0.546677411
aF-0.148583770
aF0.153183877
aF-0.008182775
aF0.181989089
aF-0.450316608
aF0.396843135
aF-0.561406493
aF-0.495907277
aF-1.004978776
aF-0.534114778
aF1.025940299
aF-0.026520219
aF-0.642807364
aF-0.754491806
aF0.995532572
aF-0.036172029
aF1.283259511
aF0.405794352
aF-1.432165384
aF-0.097210407
aF-1.015083432
aF-0.231838018
aF0.038704891
aF-0.324933201
aF-1.242071509
aF0.384227186
aF0.046259988
aF-0.443175405
aF-0.465629965
aF0.352899998
aF-0.306682885
aF-1.773264885
aF-0.489240199
aF-1.146515489
aF-0.102487355
aF0.139749721
aF-0.703407049
aF1.515862346
aF-0.825099468
aF-0.318335086
aF0.103152812
aF-0.434692472
aF0.415501565
aF0.208235070
aF0.508737326
aF-0.420646667
aF0.273537070
aF0.033081546
aF-0.733872294
aF-1.268097878
aF-0.593053639
aF-0.951709390
aF-0.238645360
aF-0.580516338
aF-0.890370250
aF0.463471800
aF-0.479958862
aF0.572690189
aF0.244941443
aF-0.576893270
aF0.030534573
aF-0.624536812
aF0.110842459
aF-0.093662731
aF-0.194509983
aF0.679262459
aF-0.181070551
aF0.672939956
aF0.372918308
aF-0.803038299
aF0.042586140
aF0.894506872
aF-0.399518758
aF0.835124910
aF0.774329066
aF1.404475808
aF-0.801336706
aF-0.605560601
aF0.605314791
aF-0.731039286
aF0.101798505
aF0.992339671
aF0.446420282
aF0.439320117
aF-1.263663292
aF-0.092583515
aF-0.857375026
aF-0.177038312
aF-0.160313457
aF0.316561967
aF-0.548415005
aF0.660274863
aF0.243910477
aF0.221668035
aF-1.321225405
aF-0.938099325
aF-0.376127154
aF0.237046406
aF-0.860552073
aF0.300582916
aF0.818685055
aF0.327808142
aF-0.965713739
aF0.558195055
aF0.154955387
aF0.409962624
aF-0.362849534
aF0.855672419
aF1.114679933
aF-0.634277582
aF0.233510643
aF1.653394580
aF-1.473322868
aF-0.738848150
aF-0.744529903
aF0.817805231
aF-1.580503345
aF0.748609602
aF0.035533547
aF0.414595187
aF0.739361048
aF0.535666406
aF-0.430828661
aF-0.159764692
aF-1.747842669
aF0.575566590
aF-0.425055504
aF-0.521412671
aF0.182139352
aF-0.859650552
aF0.396056831
aF0.323075801
aF-1.211653829
aF1.336429596
aF0.366998792
aF0.890899301
aF-0.296560735
aF1.149076939
aF0.359248936
aF1.040648222
aF0.052284688
aF0.605086446
aF0.171910569
aF-0.242237568
aF0.715669572
aF-0.294457793
aF1.992197394
aF-0.821480632
aF-0.663985372
aF0.092632063
aF1.089479685
aF-0.573480070
aF-0.136264011
aF-0.542506754
aF1.258480787
aF0.298349798
aF0.325323492
aF0.767319858
aF-0.348471314
aF-0.615654230
aF0.879970551
aF1.038161039
aF-0.462404996
aF-0.206629738
aF0.374464601
aF-0.217850462
aF-0.022412591
aF-0.275923997
aF1.382153749
aF-0.312313497
aF0.383482963
aF-0.267649949
aF0.630773187
aF-0.711792231
aF-1.060858130
aF-0.202685505
aF-0.747128367
aF-0.090133004
aF1.468924761
aF-1.293238401
aF1.320935607
aF0.692315936
aF-0.590068042
aF-1.444425702
aF-0.090077184
aF0.285071611
aF1.333004117
aF-0.689786732
aF-1.056717277
aF-0.557749689
aF0.748302937
aF0.996541500
aF0.469834894
aF-0.492544621
aF0.336081326
aF-0.852747202
aF0.300580412
aF-0.441964477
aF0.910985887
aF-1.541245341
aF-1.430188775
aF0.016932122
aF-0.881879628
aF0.992741048
aF0.708664179
aF0.051551964
aF0.998866141
aF-1.438040376
aF-0.002727430
aF0.815441966
aF0.951283336
aF0.086213596
aF0.024194095
aF-0.209526226
aF0.173411354
aF0.177073389
aF0.694673061
aF0.728650451
aF1.047040582
aF-0.037454829
aF-1.909987450
aF0.755682886
aF1.216725707
aF-0.152295098
aF0.596252680
aF-0.338289499
aF0.152382389
aF0.527881444
aF-0.029653538
aF-0.789644420
aF1.008636236
aF-0.768841863
aF-0.157979399
aF1.049807668
aF0.764569998
aF0.658988893
aF0.633517683
aF-1.642562866
aF-0.481350988
aF1.062765241
aF1.237081289
aF0.566846788
aF0.012695502
aF-0.719442964
aF-0.082156755
aF-0.259497046
aF-1.507877707
aF0.498598069
aF-0.500891030
aF0.346908748
aF1.355308652
aF0.702242553
aF0.835139751
aF-0.216473460
aF0.290796280
aF-0.540926695
aF0.032673962
aF0.545257926
aF0.382684290
aF0.852828383
aF0.288346738
aF-0.378104120
aF-0.774570107
aF0.301767468
aF0.414297819
aF0.707008600
aF-0.154458463
aF-0.469588071
aF1.467625976
aF0.202351078
aF1.188799500
aF0.538275421
aF-1.421313763
aF-0.432832807
aF0.388386190
aF-0.839983582
aF-0.156602025
aF-1.643798828
aF0.060273472
aF-1.733998895
aF0.720740020
aF-0.277968198
aF-0.603803754
aF0.323702216
aF0.412858039
aF-0.684616148
aF-1.134163022
aF-1.221760988
aF-0.046276249
aF-0.808132410
aF0.083443485
aF-1.039219737
aF0.778615952
aF-0.842821479
aF-0.051064175
aF1.171088338
aF0.629783928
aF0.017673166
aF0.495741516
aF-0.981733799
aF-0.200627446
aF0.247095317
aF-0.046435066
aF0.139832169
aF0.497560054
aF0.838354051
aF-1.259489775
aF1.025228381
aF-0.039834984
aF0.448769867
aF0.819475174
aF1.291669488
aF0.447483689
aF-1.208976388
aF1.061366558
aF-0.289205253
aF0.410434902
aF-0.617754877
aF-0.360343844
aF0.588836610
aF0.269996822
aF-1.736142993
aF0.842501760
aF1.359182954
aF0.253118634
aF-0.494853795
aF-1.001162529
aF0.919613779
aF-1.184908271
aF1.850935340
aF-0.023677211
aF0.897064567
aF0.205709994
aF-0.005996535
aF0.026357723
aF-0.713532746
aF0.745259106
aF0.370117188
aF1.141923070
aF-0.673309267
aF0.539337635
aF-0.387967855
aF0.441928476
aF0.257520527
aF0.502232194
aF0.730556667
aF0.061198607
aF-0.196921438
aF-0.398764223
aF0.104745448
aF-0.878207326
aF0.231159315
aF0.609220088
aF0.923532665
aF0.391613632
aF-0.810532689
aF0.468885869
aF-1.291527748
aF0.979306042
aF-0.520172417
aF-1.314618468
aF-0.402191132
aF1.193456531
aF0.577043951
aF-0.849810302
aF0.451201558
aF1.072934985
aF-0.309823275
aF-0.355386287
aF0.294990629
aF0.402045369
aF-0.683275998
aF-0.108185418
aF-0.039572235
aF-0.242853582
aF-1.173802614
aF0.122491091
aF0.546309233
aF0.221806318
aF2.231121063
aF1.751676321
aF-0.437187284
aF-0.775890112
aF-0.639482439
aF-0.424946010
aF-1.255990863
aF-1.085542083
aF0.472122490
aF1.655912638
aF-0.814041972
aF-0.332719624
aF1.139498711
aF-0.574653804
aF-0.447800815
aF-0.766318858
aF-0.072477929
aF0.857023239
aF-1.556115389
aF1.348337889
aF-0.486564934
aF0.413963228
aF-0.917958558
aF0.368493289
aF-1.054350138
aF0.849141419
aF0.525097251
aF0.475100636
aF-0.326342046
aF0.684335530
aF-1.524179816
aF-0.007896231
aF0.522771776
aF0.188270554
aF-0.040282313
aF0.364932775
aF0.904875934
a.
