(lp0
F-0.421904594
aF0.920790851
aF0.785427928
aF0.853259802
aF0.659844458
aF0.207312122
aF-0.345330656
aF-1.154836297
aF-0.039714679
aF-1.249694705
aF-0.288695365
aF0.586096942
aF-0.866906285
aF0.166947961
aF0.548102140
aF0.364835083
aF0.088545591
aF0.017708607
aF-0.108153559
aF-0.014522131
aF-0.721340418
aF0.030162035
aF-0.074431516
aF0.264074922
aF0.658353746
aF0.523892343
aF-0.282061636
aF0.790945411
aF-0.985168934
aF-0.292287737
aF-0.018332178
aF0.003219457
aF-0.456311643
aF-0.956129968
aF-0.730982423
aF0.911958694
aF0.283900768
aF0.513261974
aF0.381821662
aF-0.484189719
aF0.211892545
aF-0.617529094
aF-1.051612020
aF0.159803525
aF0.062361207
aF-0.414598495
aF1.051643372
aF-0.348349303
aF0.420832366
aF0.259135455
aF0.173020586
aF0.296094686
aF0.189735740
aF-0.999516070
aF-0.416634917
aF-0.018414574
aF1.020944953
aF-0.369037032
aF0.876108646
aF0.652800918
aF-1.303185940
aF-0.836551607
aF-0.102682918
aF0.295470029
aF0.064902209
aF0.203020230
aF-0.295139015
aF-0.159161344
aF0.974412918
aF0.236406520
aF0.004775710
aF1.238666892
aF0.669524014
aF-0.571406245
aF-0.816126764
aF0.174038008
aF-1.582616448
aF0.270965934
aF-0.136979058
aF0.858187318
aF0.230167031
aF-0.202842921
aF0.062673844
aF0.013442839
aF0.074648723
aF-0.542247295
aF-0.586565912
aF-0.011677172
aF0.525889754
aF-0.633856237
aF0.738355041
aF0.422602743
aF0.993829429
aF-0.383795708
aF-0.070378058
aF-0.308442086
aF0.310851246
aF0.252737939
aF0.383119136
aF-0.081361122
aF-1.259485722
aF0.812212765
aF0.756089091
aF-0.114212148
aF-1.112370014
aF-0.385093391
aF-0.046395250
aF-0.212286323
aF-0.211749375
aF0.903028488
aF-0.050287463
aF-0.022757394
aF-0.743453503
aF0.171018317
aF0.267282069
aF0.066434860
aF-0.514441013
aF0.649023056
aF0.722957909
aF-0.250660777
aF1.520717621
aF0.628426850
aF-0.182698786
aF0.326448441
aF-1.254834414
aF0.433831334
aF-0.451057076
aF-0.039266478
aF0.152048126
aF-1.374129176
aF0.456876725
aF-0.305655509
aF-1.089554787
aF0.525945604
aF0.730370998
aF0.300177634
aF-1.367836714
aF0.274483919
aF0.366071433
aF-0.646069407
aF0.115220033
aF0.192112714
aF0.254656196
aF-0.602715194
aF0.226302147
aF0.898626566
aF-0.618007243
aF-0.311460763
aF-1.039129615
aF-0.711415648
aF0.046540566
aF0.592275083
aF0.204578444
aF-1.308518887
aF0.225336194
aF-1.047281623
aF-0.214278266
aF0.687966228
aF0.641963780
aF0.018553188
aF-0.406638235
aF0.439292878
aF-0.106215864
aF-0.223301619
aF0.353734732
aF0.099024497
aF0.019086260
aF-0.505012333
aF0.485665500
aF1.050329924
aF-0.263861895
aF-0.300919205
aF0.881447315
aF0.385121852
aF0.017742831
aF-0.505991757
aF0.428833455
aF-0.339769334
aF-0.002016842
aF-0.838405967
aF0.036027111
aF0.398048103
aF-1.105861902
aF-0.332888097
aF0.071247607
aF0.287083805
aF0.055959783
aF0.538749099
aF0.047811795
aF-0.064249150
aF-0.738896847
aF0.983665466
aF0.509399176
aF0.165739074
aF0.770126045
aF-1.169600487
aF-0.635055721
aF-0.301059484
aF-0.136147633
aF-0.553907931
aF-0.639056861
aF-0.681461155
aF-0.430535972
aF0.003177862
aF-0.317997664
aF0.657002568
aF-0.545624673
aF0.229959682
aF-0.618524909
aF0.041569401
aF0.970892429
aF0.419675678
aF-0.241190791
aF0.796405613
aF0.261164427
aF0.745004714
aF-0.535184503
aF-0.727288723
aF-0.240081981
aF-1.637927294
aF1.075439811
aF0.081913479
aF0.303004205
aF-0.362810522
aF1.132155657
aF0.407901525
aF0.504935026
aF-0.158065662
aF-1.286296129
aF1.141456485
aF0.307072669
aF-0.549608707
aF-0.166989133
aF0.091740295
aF-0.443320036
aF-0.412761986
aF-1.196461439
aF-0.316362739
aF0.052097265
aF-0.217770427
aF0.226886600
aF-0.398291677
aF0.106749058
aF0.755282819
aF-0.608829975
aF0.091045164
aF-0.474107057
aF-0.088418715
aF-0.236381188
aF-0.489322633
aF0.441828132
aF-0.191534743
aF-0.503953695
aF-0.446892142
aF0.008830897
aF-0.073662184
aF0.291748732
aF0.080390319
aF0.547107935
aF-0.755967736
aF-0.529358566
aF0.151276767
aF0.638635993
aF-0.990159392
aF-0.758074105
aF-0.145033613
aF-0.811749518
aF-0.900809884
aF-0.422809005
aF-0.040748686
aF0.522668719
aF-0.151476413
aF-0.386304051
aF-0.797637582
aF0.022137064
aF0.676844120
aF-0.624306440
aF0.861970305
aF0.367341012
aF1.230055332
aF-0.703558505
aF1.418769121
aF0.029224705
aF-0.201781943
aF-0.330543965
aF0.662716150
aF0.235090062
aF0.967890561
aF-0.336819887
aF-0.235552773
aF0.936612785
aF0.135876030
aF0.161834583
aF0.009778542
aF0.054044008
aF0.154004097
aF-1.137842655
aF0.395533025
aF-0.728521824
aF-0.412891388
aF0.004049797
aF0.318834186
aF0.847210228
aF1.158285856
aF0.792082906
aF-1.337157726
aF-0.235298008
aF0.454388887
aF-0.816002905
aF-0.240050584
aF0.172626838
aF0.015116557
aF-0.055564024
aF0.827385008
aF-0.438915819
aF0.159498632
aF0.505312204
aF-0.172983304
aF1.026524067
aF0.115395144
aF1.105280280
aF0.961684167
aF-0.031527191
aF0.426281750
aF0.764604270
aF0.128731430
aF-1.273691893
aF-0.079546347
aF-1.295376778
aF0.537835598
aF0.282164007
aF-1.081628561
aF1.112590313
aF-0.013699306
aF0.569339335
aF-0.134711325
aF0.968583584
aF-0.282855213
aF0.219393805
aF0.518756628
aF0.334407449
aF0.163359925
aF-1.586954355
aF-0.071942694
aF0.367994577
aF-0.622205257
aF-0.100161612
aF-1.735507488
aF1.069798112
aF0.840863168
aF-0.982656479
aF-0.683076382
aF0.336996347
aF-0.694550335
aF-1.055485845
aF-0.122618735
aF1.240925550
aF1.282077789
aF-0.757830977
aF-1.424325824
aF-0.322457403
aF-0.353858829
aF0.994882941
aF-0.418377101
aF-0.555201411
aF0.012935467
aF0.818185270
aF-1.131229043
aF-0.347933888
aF0.892102718
aF0.239040330
aF-0.161268279
aF-0.175559044
aF0.369609416
aF1.135514736
aF-0.495762527
aF0.731699765
aF-0.093318291
aF0.252898693
aF-0.079407483
aF0.552138090
aF0.725784898
aF0.108990222
aF-0.435216665
aF0.088744067
aF-0.902540565
aF0.550878167
aF-0.360692948
aF0.119497187
aF-0.357365012
aF0.327762961
aF0.287514687
aF0.003165114
aF0.357404888
aF-0.960827053
aF-1.162147045
aF0.697584987
aF-1.076123834
aF-1.060722947
aF-0.172296003
aF-1.559017658
aF0.386496395
aF1.076680183
aF-0.724397600
aF0.345219314
aF0.607015193
aF-0.219483897
aF0.526909590
aF-1.504037738
aF0.536209702
aF-1.296593308
aF-0.348371089
aF0.876150727
aF-0.688994169
aF0.884905994
aF-0.683249950
aF0.395221055
aF-0.928911030
aF0.061507158
aF-1.583775163
aF0.135536104
aF-1.290069461
aF-0.114617132
aF-0.246120602
aF-0.711858451
aF0.111838818
aF-0.840811908
aF-1.010776281
aF0.943648100
aF0.163302079
aF0.437040836
aF-0.415486604
aF-0.723210990
aF-1.025171638
aF0.611093462
aF0.007961298
aF0.425816178
aF0.205580413
aF1.096986651
aF0.477626443
aF0.441400558
aF0.362074345
aF-0.687308550
aF0.488241464
aF0.101986885
aF0.702431321
aF0.803285420
aF0.626694858
aF-0.803001225
aF1.050046921
aF-0.161850750
aF0.848507285
aF-1.517055988
aF-0.073331065
aF0.254459828
aF0.119629383
aF0.548717558
aF-0.146081433
aF1.604155540
aF-0.685425520
aF-1.212646246
aF1.633368373
aF0.537693501
aF0.864101768
aF-0.125743613
aF0.071729824
aF-0.778906703
aF0.438558042
aF0.774486542
aF0.630937040
aF0.596378446
aF-0.211443603
aF-0.169288412
aF-0.266416430
aF-0.318016499
aF0.335164428
aF-0.065020889
aF1.560887337
aF-0.219627991
aF0.640905201
aF0.529117763
aF-1.409269691
aF0.544766068
aF0.148206994
aF-0.808712363
aF0.026004968
aF0.830805719
aF1.042981267
aF-0.297760665
aF0.166365802
aF-0.206914812
aF0.390122592
aF-0.424844444
aF0.063448556
aF-1.592369676
aF0.489614397
aF-0.360717505
aF-0.477574259
aF0.277102500
aF0.378839910
aF0.494246483
aF0.602683246
aF-0.028521426
aF-0.321228892
aF0.855757952
aF-1.712757111
aF-0.695459604
aF-0.071313493
aF-0.061905313
aF0.063444316
aF-0.600431621
aF-1.081526756
a.
