(lp0
F-0.815881670
aF-1.066715360
aF-0.609571457
aF1.206557393
aF-0.729380131
aF0.303934246
aF0.282281578
aF-1.141755342
aF-0.320409030
aF-0.078752495
aF0.928927064
aF0.226481795
aF-0.146277934
aF-1.237323046
aF1.396930933
aF0.186147824
aF0.882519603
aF0.607078552
aF0.037372351
aF-1.857561827
aF0.555868149
aF0.289370149
aF0.266375691
aF0.297817737
aF-0.619189739
aF0.808077574
aF2.246105433
aF1.534773231
aF-0.920884013
aF1.771011829
aF0.098074369
aF-0.679458618
aF-0.108930498
aF-1.182650208
aF1.667061806
aF-0.818430126
aF-0.147174478
aF-0.264041245
aF-0.796384633
aF-1.017379999
aF1.451335788
aF-1.025297403
aF-0.422979057
aF-0.883835316
aF-0.258688062
aF0.731737733
aF-1.222062349
aF1.152718782
aF-0.153855175
aF1.048601866
aF-0.182539642
aF-0.121286795
aF1.305356503
aF-0.437991053
aF0.191656321
aF-0.688135862
aF-0.545302927
aF1.870533109
aF-0.409198016
aF-2.663588524
aF-0.751785338
aF-0.711468220
aF0.840610981
aF2.577452898
aF0.465730637
aF1.644366980
aF-0.519279540
aF-0.656158507
aF-0.152597249
aF0.069295004
aF-0.081611730
aF1.067320347
aF1.286037922
aF0.251610100
aF-0.079061672
aF-0.274489552
aF-0.954538822
aF-0.528750181
aF-1.206539273
aF-0.439653903
aF0.909682274
aF0.645544589
aF-0.103397526
aF0.746832848
aF-0.330808282
aF-0.793897688
aF-0.373060703
aF0.174052089
aF-1.052063823
aF-0.827784479
aF1.494855762
aF-0.232136682
aF0.558092415
aF1.357080698
aF-1.729554176
aF-0.506942332
aF-0.715133607
aF-0.309604824
aF-0.798794746
aF0.395064652
aF-2.150453806
aF0.570545137
aF-0.614783704
aF2.176577806
aF0.175190374
aF-0.916062891
aF0.140496686
aF-0.505883753
aF0.011337039
aF2.155003071
aF0.104124315
aF0.573748589
aF0.974334180
aF2.098940372
aF0.498827189
aF0.012114745
aF-2.158790350
aF-0.189234778
aF1.264019608
aF-1.528561354
aF-1.118952513
aF1.834425211
aF0.771800697
aF0.716815531
aF0.980269074
aF0.334938347
aF0.514913917
aF-0.583548427
aF0.004647785
aF-0.107276388
aF0.738977313
aF0.088258691
aF0.745316386
aF1.255819321
aF-0.544600427
aF0.978826046
aF-1.338781118
aF0.776147366
aF0.671169221
aF0.276914567
aF0.362461358
aF0.898360133
aF-0.410759568
aF-0.397557080
aF0.329387069
aF1.373504281
aF0.269351602
aF-1.125705361
aF-0.811603546
aF-2.039524317
aF2.091073275
aF-0.529380620
aF0.551078856
aF-0.637652278
aF-0.362880051
aF-1.238563180
aF1.839753270
aF-0.300863415
aF-1.359304428
aF0.362053156
aF0.114893287
aF-0.439388484
aF-1.109305978
aF0.304995239
aF0.226092651
aF1.200185537
aF1.040214300
aF0.967618763
aF-1.083466768
aF-0.146786824
aF0.208193377
aF-0.174432561
aF-0.584839165
aF-0.676112056
aF-1.851101160
aF0.219371408
aF-1.298164964
aF0.730006874
aF0.160575882
aF-1.407804728
aF1.271219254
aF1.110236049
aF-1.034584999
aF2.300721407
aF0.921653152
aF1.032075405
aF0.294234991
aF2.263466120
aF0.108549669
aF0.748383522
aF-1.122336388
aF0.942073107
aF1.075332284
aF0.555763066
aF-0.642238200
aF-1.229394913
aF-0.406784326
aF1.570151925
aF-0.731171906
aF-0.844185948
aF-0.590005815
aF-1.650147915
aF0.242287382
aF-1.388789535
aF-0.977311909
aF0.076154068
aF-1.555331945
aF-0.980874300
aF1.300750375
aF-0.400822997
aF0.503145814
aF0.675873518
aF-0.309915304
aF0.737212121
aF-0.837932765
aF-0.396501154
aF1.029053092
aF0.436505526
aF-1.504981041
aF0.260926604
aF1.339250684
aF0.682631969
aF0.002027653
aF-0.165602610
aF0.125967428
aF0.175973147
aF-0.102241591
aF-0.028031792
aF-0.502088130
aF-0.035370916
aF1.621845484
aF0.612851799
aF-0.606712818
aF1.427111745
aF-0.996532857
aF-1.381768465
aF0.369489551
aF1.132734418
aF-1.128264666
aF0.363419294
aF-0.255484462
aF0.131586999
aF-0.090825059
aF0.529593468
aF0.832626879
aF-1.254785180
aF0.053296473
aF1.046973586
aF-0.803662658
aF-0.472754419
aF-0.807972550
aF0.403335810
aF-0.707311153
aF-0.541887999
aF-0.906969488
aF-1.055443764
aF-1.641702890
aF-0.611887991
aF0.916461527
aF-0.270851731
aF-0.506372154
aF-1.123995304
aF-0.939073682
aF-1.122971892
aF0.198968589
aF-1.681169271
aF-0.799481511
aF-1.917807102
aF-1.649109006
aF-1.258452177
aF-1.099050760
aF-0.151308745
aF-0.772198915
aF0.154484302
aF0.229177997
aF1.748094797
aF0.970389843
aF1.442349911
aF-1.513496876
aF1.579831839
aF0.643175662
aF-0.168362156
aF0.520287395
aF-1.022910357
aF-0.374173075
aF0.122487605
aF0.334630758
aF1.125079870
aF0.494548410
aF-0.939014673
aF0.513860643
aF-1.019315004
aF0.218428314
aF0.596071541
aF-0.873810887
aF0.250500977
aF-0.018601183
aF0.194921345
aF-2.266262054
aF-0.096495859
aF0.597349763
aF-0.205474645
aF0.306871951
aF0.993909478
aF0.174480379
aF1.222367048
aF-1.183259726
aF0.682082951
aF-0.726161540
aF0.695341945
aF1.728915811
aF0.326247036
aF1.002769113
aF0.662613094
aF0.296068788
aF-0.517298102
aF-1.170060039
aF0.602853537
aF-0.314836442
aF0.524383485
aF-2.532564640
aF-0.611237526
aF0.227976620
aF-0.018099528
aF0.337253094
aF0.221165597
aF-0.337701410
aF-1.120944142
aF-0.113493666
aF-0.393536866
aF-0.507128596
aF0.849657953
aF-0.200129449
aF-0.350867599
aF-0.946996868
aF-1.048152924
aF0.894314528
aF0.830909967
aF-0.473036736
aF0.812652767
aF0.251633674
aF1.084431171
aF-0.068780467
aF-1.042340040
aF-0.347675472
aF0.285546392
aF0.000168468
aF-0.272984415
aF0.491776675
aF-0.519983292
aF-0.864143074
aF1.149403572
aF1.583225369
aF0.576721251
aF0.629681349
aF0.191802010
aF-0.130865172
aF1.173441052
aF-1.173716545
aF-0.699199855
aF2.036238670
aF0.151854977
aF0.262055099
aF0.678396642
aF-1.008587480
aF0.831394970
aF0.093160592
aF-0.447286338
aF0.732136846
aF0.176462814
aF-2.406449556
aF0.895868421
aF-0.341113269
aF0.850961328
aF1.178522348
aF-0.124707416
aF-0.701306581
aF-2.102625370
aF-0.107157871
aF-0.389446676
aF0.251833022
aF2.572383404
aF0.280850053
aF1.065858603
aF0.408425361
aF0.196616054
aF-2.498248816
aF0.441172183
aF-2.142982721
aF-0.238054827
aF0.628630280
aF-0.263103515
aF-0.168875590
aF-0.488545865
aF0.084935896
aF0.065968588
aF0.934390962
aF0.669176161
aF-0.017701803
aF1.429638505
aF0.609655976
aF0.048826374
aF-1.464194775
aF-0.096164800
aF0.294880509
aF0.808464348
aF0.644570768
aF1.315600157
aF0.662411213
aF1.982295871
aF-0.254183114
aF-1.798291445
aF0.567265928
aF-0.154333234
aF-2.052505732
aF-0.259205282
aF-0.594671071
aF1.432350516
aF-1.142876148
aF0.462608218
aF0.357182264
aF2.219978333
aF-0.427423716
aF-0.109248452
aF-0.766068041
aF-1.034394979
aF0.377794296
aF-0.290739536
aF1.158838630
aF-2.891116619
aF-0.550867915
aF0.295536011
aF0.684404075
aF-1.105651736
aF-0.024472237
aF0.441634238
aF-0.611769676
aF-0.407216281
aF0.559471786
aF-0.039275285
aF-0.146253526
aF-1.456879616
aF1.316139579
aF0.970723689
aF-1.790527344
aF1.352704525
aF-0.726361394
aF0.644053996
aF-1.409126282
aF-0.432904005
aF-0.160443380
aF0.263162583
aF0.733169734
aF-1.251771331
aF-0.092504174
aF-1.539891601
aF0.049906332
aF1.507032275
aF1.082239270
aF0.255244106
aF0.733202815
aF-0.704299152
aF1.487346768
aF0.573711157
aF1.939711094
aF1.716276526
aF-1.129996896
aF-0.252131492
aF0.722289562
aF-0.196992069
aF1.618454456
aF-1.144440889
aF-0.324310869
aF0.041537751
aF0.423299193
aF0.436029792
aF-0.144909531
aF1.160817027
aF-1.273799658
aF0.134991005
aF1.724583983
aF-0.190445065
aF-1.074176669
aF-0.560634673
aF-0.537986338
aF-1.462871432
aF-0.516596496
aF0.242495745
aF-0.648052514
aF1.076810002
aF-0.358180583
aF-1.313975096
aF-0.188052431
aF-0.334580570
aF-0.560860276
aF-0.941700161
aF-0.687462389
aF0.064952075
aF1.078905940
aF-0.810913801
aF-0.891679943
aF-1.042444229
aF-1.173696995
aF1.407904744
aF0.288710177
aF-0.809058726
aF0.735418677
aF0.644149482
aF0.446241349
aF-0.407918394
aF1.179467440
aF0.636919796
a.
